; Function Attrs: mustprogress uwtable
define hidden void @_ZN3opt7context5mk_geEP4exprS2_(ptr noalias sret(%class.obj_ref.76) align 8 %agg.result, ptr noundef nonnull align 8 dereferenceable(792) %this, ptr noundef nonnull %t, ptr noundef %s) local_unnamed_addr #3 align 2 personality ptr @__gxx_personality_v0 {
entry:
  %m = getelementptr inbounds i8, ptr %this, i64 8
  %0 = load ptr, ptr %m, align 8
  store ptr null, ptr %agg.result, align 8
  %m_manager.i = getelementptr inbounds i8, ptr %agg.result, i64 8
  store ptr %0, ptr %m_manager.i, align 8
  %m_bv = getelementptr inbounds i8, ptr %this, i64 184
  %call.i4 = invoke noundef ptr @_ZNK4expr8get_sortEv(ptr noundef nonnull align 4 dereferenceable(16) %t)
          to label %call.i.noexc unwind label %lpad

call.i.noexc:                                     ; preds = %entry
  %call2.i5 = invoke noundef zeroext i1 @_ZNK14bv_recognizers10is_bv_sortEPK4sort(ptr noundef nonnull align 4 dereferenceable(4) %m_bv, ptr noundef %call.i4)
          to label %invoke.cont unwind label %lpad

invoke.cont:                                      ; preds = %call.i.noexc
  br i1 %call2.i5, label %if.then, label %if.else

if.then:                                          ; preds = %invoke.cont
  %m_manager.i6 = getelementptr inbounds i8, ptr %this, i64 192
  %1 = load ptr, ptr %m_manager.i6, align 8
  %2 = load i32, ptr %m_bv, align 8
  %call2.i7 = invoke noundef ptr @_ZN11ast_manager6mk_appEiiP4exprS1_(ptr noundef nonnull align 8 dereferenceable(976) %1, i32 noundef %2, i32 noundef 22, ptr noundef %s, ptr noundef nonnull %t)
          to label %invoke.cont3 unwind label %lpad

invoke.cont3:                                     ; preds = %if.then
  %tobool.not.i = icmp eq ptr %call2.i7, null
  br i1 %tobool.not.i, label %nrvo.skipdtor, label %nrvo.skipdtor.sink.split

lpad:                                             ; preds = %if.else, %if.then, %call.i.noexc, %entry
  %3 = landingpad { ptr, i32 }
          cleanup
  tail call void @_ZN7obj_refI4expr11ast_managerED2Ev(ptr noundef nonnull align 8 dereferenceable(16) %agg.result) #24
  resume { ptr, i32 } %3

if.else:                                          ; preds = %invoke.cont
  %m_arith = getelementptr inbounds i8, ptr %this, i64 168
  %4 = load ptr, ptr %m_arith, align 8
  %call.i9 = invoke noundef ptr @_ZN11ast_manager6mk_appEiiP4exprS1_(ptr noundef nonnull align 8 dereferenceable(976) %4, i32 noundef 5, i32 noundef 3, ptr noundef nonnull %t, ptr noundef %s)
          to label %invoke.cont7 unwind label %lpad

invoke.cont7:                                     ; preds = %if.else
  %tobool.not.i10 = icmp eq ptr %call.i9, null
  br i1 %tobool.not.i10, label %nrvo.skipdtor, label %nrvo.skipdtor.sink.split

nrvo.skipdtor.sink.split:                         ; preds = %invoke.cont7, %invoke.cont3
  %call2.i7.sink = phi ptr [ %call2.i7, %invoke.cont3 ], [ %call.i9, %invoke.cont7 ]
  %m_ref_count.i.i.i = getelementptr inbounds i8, ptr %call2.i7.sink, i64 8
  %5 = load i32, ptr %m_ref_count.i.i.i, align 4
  %inc.i.i.i13 = add i32 %5, 1
  store i32 %inc.i.i.i13, ptr %m_ref_count.i.i.i, align 4
  br label %nrvo.skipdtor

nrvo.skipdtor:                                    ; preds = %nrvo.skipdtor.sink.split, %invoke.cont7, %invoke.cont3
  %storemerge = phi ptr [ null, %invoke.cont3 ], [ null, %invoke.cont7 ], [ %call2.i7.sink, %nrvo.skipdtor.sink.split ]
  store ptr %storemerge, ptr %agg.result, align 8
  ret void
}